; Function Attrs: nounwind uwtable
define hidden range(i32 0, 4) i32 @Curl_share_lock(ptr noundef %0, i32 noundef %1, i32 noundef %2) local_unnamed_addr #0 {
  %4 = getelementptr inbounds nuw i8, ptr %0, i64 224
  %5 = load ptr, ptr %4, align 8, !tbaa !36
  %.not = icmp eq ptr %5, null
  br i1 %.not, label %17, label %6

6:                                                ; preds = %3
  %7 = getelementptr inbounds nuw i8, ptr %5, i64 4
  %8 = load i32, ptr %7, align 4, !tbaa !26
  %9 = shl nuw i32 1, %1
  %10 = and i32 %8, %9
  %.not12 = icmp eq i32 %10, 0
  br i1 %.not12, label %17, label %11

11:                                               ; preds = %6
  %12 = getelementptr inbounds nuw i8, ptr %5, i64 16
  %13 = load ptr, ptr %12, align 8, !tbaa !33
  %.not13 = icmp eq ptr %13, null
  br i1 %.not13, label %17, label %14

14:                                               ; preds = %11
  %15 = getelementptr inbounds nuw i8, ptr %5, i64 32
  %16 = load ptr, ptr %15, align 8, !tbaa !35
  tail call void %13(ptr noundef nonnull %0, i32 noundef %1, i32 noundef %2, ptr noundef %16) #4
  br label %17

17:                                               ; preds = %6, %14, %11, %3
  %.0 = phi i32 [ 3, %3 ], [ 0, %11 ], [ 0, %14 ], [ 0, %6 ]
  ret i32 %.0
}